target datalayout = "e-m:e-p270:32:32-p271:32:32-p272:64:64-i64:64-i128:128-f80:128-n8:16:32:64-S128"
target triple = "x86_64-pc-linux-gnu"

; Function Attrs: nounwind uwtable
define dso_local void @ossl_cmp_mock_srv_free(ptr noundef %0) #0 {
  %2 = alloca ptr, align 8
  store ptr %0, ptr %2, align 8, !tbaa !4
  %3 = load ptr, ptr %2, align 8, !tbaa !4
  %4 = icmp ne ptr %3, null
  br i1 %4, label %5, label %8

5:                                                ; preds = %1
  %6 = load ptr, ptr %2, align 8, !tbaa !4
  %7 = call ptr @OSSL_CMP_SRV_CTX_get0_custom_ctx(ptr noundef %6)
  call void @mock_srv_ctx_free(ptr noundef %7)
  br label %8

8:                                                ; preds = %5, %1
  %9 = load ptr, ptr %2, align 8, !tbaa !4
  call void @OSSL_CMP_SRV_CTX_free(ptr noundef %9)
  ret void
}