; Function Attrs: nounwind uwtable
define dso_local void @ossl_cmp_mock_srv_free(ptr noundef %0) local_unnamed_addr #0 {
  %.not = icmp eq ptr %0, null
  br i1 %.not, label %4, label %2

2:                                                ; preds = %1
  %3 = tail call ptr @OSSL_CMP_SRV_CTX_get0_custom_ctx(ptr noundef nonnull %0) #4
  tail call fastcc void @mock_srv_ctx_free(ptr noundef %3)
  br label %4

4:                                                ; preds = %2, %1
  tail call void @OSSL_CMP_SRV_CTX_free(ptr noundef %0) #4
  ret void
}